LIBRARY runtime
EXPORTS
; libnet
	??0QueryBuilder@Uri@@QAE@$$QAU01@@Z
	??0QueryBuilder@Uri@@QAE@ABU01@@Z
	??0QueryBuilder@Uri@@QAE@XZ
	??0Uri@@QAE@$$QAV0@@Z
	??0Uri@@QAE@ABV0@@Z
	??0Uri@@QAE@ABV?$basic_string@DU?$char_traits@D@std@@V?$allocator@D@2@@std@@@Z
	??0Uri@@QAE@XZ
	??0dir_entries@filesystem@@QAE@$$QAV01@@Z
	??0dir_entries@filesystem@@QAE@ABV01@@Z
	??0directory_entry@filesystem@@QAE@$$QAV01@@Z
	??0directory_entry@filesystem@@QAE@ABVpath@1@@Z
	??0directory_iterator@filesystem@@QAE@$$QAV01@@Z
	??0directory_iterator@filesystem@@QAE@ABV01@@Z
	??0path@filesystem@@QAE@$$QAV01@@Z
	??0path@filesystem@@QAE@ABV01@@Z
	??0path@filesystem@@QAE@ABV?$basic_string@DU?$char_traits@D@std@@V?$allocator@D@2@@std@@@Z
	??0path@filesystem@@QAE@ABV?$basic_string@_WU?$char_traits@_W@std@@V?$allocator@_W@2@@std@@@Z
	??0path@filesystem@@QAE@PBD@Z
	??0path@filesystem@@QAE@PB_W@Z
	??0path@filesystem@@QAE@XZ
	??0path_iterator@filesystem@@QAE@$$QAV01@@Z
	??0path_iterator@filesystem@@QAE@ABV01@@Z
	??0path_iterator@filesystem@@QAE@ABVpath@1@I@Z
	??0path_iterator@filesystem@@QAE@XZ
	??0status@filesystem@@QAE@ABVpath@1@@Z
	??0status@filesystem@@QAE@XZ
	??1path@filesystem@@QAE@XZ
	??1path_iterator@filesystem@@QAE@XZ
	??4?$iterator@Ubidirectional_iterator_tag@std@@V?$basic_string@DU?$char_traits@D@std@@V?$allocator@D@2@@2@HPAV32@AAV32@@std@@QAEAAU01@$$QAU01@@Z
	??4?$iterator@Ubidirectional_iterator_tag@std@@V?$basic_string@DU?$char_traits@D@std@@V?$allocator@D@2@@2@HPAV32@AAV32@@std@@QAEAAU01@ABU01@@Z
	??4QueryBuilder@Uri@@QAEAAU01@$$QAU01@@Z
	??4QueryBuilder@Uri@@QAEAAU01@ABU01@@Z
	??4Uri@@QAEAAV0@$$QAV0@@Z
	??4Uri@@QAEAAV0@ABV0@@Z
	??4dir_entries@filesystem@@QAEAAV01@$$QAV01@@Z
	??4dir_entries@filesystem@@QAEAAV01@ABV01@@Z
	??4dir_find@directory_iterator@filesystem@@QAEAAU012@ABU012@@Z
	??4directory_entry@filesystem@@QAEAAV01@$$QAV01@@Z
	??4directory_entry@filesystem@@QAEAAV01@ABV01@@Z
	??4directory_iterator@filesystem@@QAEAAV01@$$QAV01@@Z
	??4directory_iterator@filesystem@@QAEAAV01@ABV01@@Z
	??4path@filesystem@@QAEAAV01@$$QAV01@@Z
	??4path@filesystem@@QAEAAV01@ABV01@@Z
	??4path@filesystem@@QAEAAV01@ABV?$basic_string@DU?$char_traits@D@std@@V?$allocator@D@2@@std@@@Z
	??4path@filesystem@@QAEAAV01@PBD@Z
	??4path_iterator@filesystem@@QAEAAV01@$$QBV01@@Z
	??4path_iterator@filesystem@@QAEAAV01@ABV01@@Z
	??4status@filesystem@@QAEAAV01@ABV01@@Z
	??8directory_entry@filesystem@@QBE_NABV01@@Z
	??8path_iterator@filesystem@@QBE_NABV01@@Z
	??9path_iterator@filesystem@@QBE_NABV01@@Z
	??Bdirectory_entry@filesystem@@QBEABVpath@1@XZ
	??Cdirectory_iterator@filesystem@@QBEPBVdirectory_entry@1@XZ
	??Cpath_iterator@filesystem@@QBEPBV?$basic_string@DU?$char_traits@D@std@@V?$allocator@D@2@@std@@XZ
	??Dpath_iterator@filesystem@@QBEABV?$basic_string@DU?$char_traits@D@std@@V?$allocator@D@2@@std@@XZ
	??Epath_iterator@filesystem@@QAE?AV01@H@Z
	??Epath_iterator@filesystem@@QAEAAV01@XZ
	??Fpath_iterator@filesystem@@QAE?AV01@H@Z
	??Fpath_iterator@filesystem@@QAEAAV01@XZ
	??Mdirectory_entry@filesystem@@QBE_NABV01@@Z
	??Ndirectory_entry@filesystem@@QBE_NABV01@@Z
	??Odirectory_entry@filesystem@@QBE_NABV01@@Z
	??Pdirectory_entry@filesystem@@QBE_NABV01@@Z
	??Ypath@filesystem@@QAEAAV01@ABV01@@Z
	??Ypath@filesystem@@QAEAAV01@ABV?$basic_string@DU?$char_traits@D@std@@V?$allocator@D@2@@std@@@Z
	??Ypath@filesystem@@QAEAAV01@D@Z
	??Ypath@filesystem@@QAEAAV01@PBD@Z
	??_0path@filesystem@@QAEAAV01@ABV01@@Z
	??_0path@filesystem@@QAEAAV01@ABV?$basic_string@DU?$char_traits@D@std@@V?$allocator@D@2@@std@@@Z
	??_0path@filesystem@@QAEAAV01@PBD@Z
	?__offset@path_iterator@filesystem@@QBEIXZ
	?absolute@Uri@@QBE_NXZ
	?absolute@filesystem@@YA?AVpath@1@ABV21@0@Z
	?add@QueryBuilder@Uri@@QAEAAU12@ABV?$basic_string@DU?$char_traits@D@std@@V?$allocator@D@2@@std@@0@Z
	?app_directory@filesystem@@YA?AVpath@1@XZ
	?append@path@filesystem@@QAEAAV12@ABV?$basic_string@DU?$char_traits@D@std@@V?$allocator@D@2@@std@@@Z
	?append@path@filesystem@@QAEAAV12@V?$_String_const_iterator@V?$_String_val@U?$_Simple_types@D@std@@@std@@@std@@0@Z
	?assign@directory_entry@filesystem@@QAEXABVpath@2@@Z
	?authority@Uri@@QBE?AV?$basic_string@DU?$char_traits@D@std@@V?$allocator@D@2@@std@@XZ
	?begin@path@filesystem@@QBE?AVpath_iterator@2@XZ
	?canonical@Uri@@SA?AV1@ABV1@0@Z
	?canonical@filesystem@@YA?AVpath@1@ABV21@0@Z
	?clear@path@filesystem@@QAEXXZ
	?compare@path@filesystem@@QBEHABV12@@Z
	?compare@path@filesystem@@QBEHABV?$basic_string@DU?$char_traits@D@std@@V?$allocator@D@2@@std@@@Z
	?compare@path@filesystem@@QBEHPBD@Z
	?create@client@http@net@@YA?AV?$shared_ptr@UXmlHttpRequest@client@http@net@@@std@@XZ
	?ctime@status@filesystem@@QBE_JXZ
	?current_path@filesystem@@YA?AVpath@1@XZ
	?empty@path@filesystem@@QBE_NXZ
	?end@path@filesystem@@QBE?AVpath_iterator@2@XZ
	?ensure_fragment@Uri@@ABEXXZ
	?ensure_path@Uri@@ABEXXZ
	?ensure_query@Uri@@ABEXXZ
	?ensure_schema@Uri@@ABEXXZ
	?exists@status@filesystem@@QBE_NXZ
	?extension@path@filesystem@@QBE?AV12@XZ
	?file_size@status@filesystem@@QBE_KXZ
	?filename@path@filesystem@@QBE?AV12@XZ
	?fopen@filesystem@@YAPAU_iobuf@@ABVpath@1@PBD@Z
	?fragment@Uri@@QAEXABV?$basic_string@DU?$char_traits@D@std@@V?$allocator@D@2@@std@@@Z
	?fragment@Uri@@QBE?AV?$basic_string@DU?$char_traits@D@std@@V?$allocator@D@2@@std@@XZ
	?get_value@path_iterator@filesystem@@AAEXXZ
	?has_extension@path@filesystem@@QBE_NXZ
	?has_filename@path@filesystem@@QBE_NXZ
	?has_parent_path@path@filesystem@@QBE_NXZ
	?has_relative_path@path@filesystem@@QBE_NXZ
	?has_root_directory@path@filesystem@@QBE_NXZ
	?has_root_name@path@filesystem@@QBE_NXZ
	?has_root_path@path@filesystem@@QBE_NXZ
	?has_stem@path@filesystem@@QBE_NXZ
	?hierarchical@Uri@@QBE_NXZ
	?invalidate_fragment@Uri@@AAEXXZ
	?invalidate_path@Uri@@AAEXXZ
	?invalidate_query@Uri@@AAEXXZ
	?invalidate_schema@Uri@@AAEXXZ
	?is_absolute@path@filesystem@@QBE_NXZ
	?is_regular_file@status@filesystem@@QBE_NXZ
	?is_relative@path@filesystem@@QBE_NXZ
	?make_base@Uri@@SA?AV1@ABV1@@Z
	?make_base@Uri@@SA?AV1@ABV?$basic_string@DU?$char_traits@D@std@@V?$allocator@D@2@@std@@@Z
	?make_preferred@path@filesystem@@QAEAAV12@XZ
	?make_universal@path@filesystem@@CAXAAV?$basic_string@DU?$char_traits@D@std@@V?$allocator@D@2@@std@@@Z
	?mtime@status@filesystem@@QBE_JXZ
	?narrowed@utf@@YA?AV?$basic_string@DU?$char_traits@D@std@@V?$allocator@D@2@@std@@ABV?$basic_string@_WU?$char_traits@_W@std@@V?$allocator@_W@2@@3@@Z
	?native@path@filesystem@@QBE?AV?$basic_string@DU?$char_traits@D@std@@V?$allocator@D@2@@std@@XZ
	?ncalc@Uri@@0IB
	?next_entry@directory_iterator@filesystem@@AAEXXZ
	?npos@Uri@@0IB
	?opaque@Uri@@QBE_NXZ
	?parent_path@path@filesystem@@QBE?AV12@XZ
	?path@Uri@@QAEXABV?$basic_string@DU?$char_traits@D@std@@V?$allocator@D@2@@std@@@Z
	?path@Uri@@QBE?AV?$basic_string@DU?$char_traits@D@std@@V?$allocator@D@2@@std@@XZ
	?query@Uri@@QAEXABV?$basic_string@DU?$char_traits@D@std@@V?$allocator@D@2@@std@@@Z
	?query@Uri@@QBE?AV?$basic_string@DU?$char_traits@D@std@@V?$allocator@D@2@@std@@XZ
	?relative@Uri@@QBE_NXZ
	?relative_path@path@filesystem@@QBE?AV12@XZ
	?remove@filesystem@@YAXABVpath@1@@Z
	?remove_filename@path@filesystem@@QAEAAV12@XZ
	?replace_extension@path@filesystem@@QAEAAV12@ABV12@@Z
	?replace_filename@directory_entry@filesystem@@QAEXABVpath@2@@Z
	?replace_filename@path@filesystem@@QAEAAV12@ABV12@@Z
	?root_directory@path@filesystem@@QBE?AV12@XZ
	?root_directory_end@path@filesystem@@ABEIXZ
	?root_name@path@filesystem@@QBE?AV12@XZ
	?root_name_end@path@filesystem@@ABEIXZ
	?root_path@path@filesystem@@QBE?AV12@XZ
	?scheme@Uri@@QBE?AV?$basic_string@DU?$char_traits@D@std@@V?$allocator@D@2@@std@@XZ
	?set_program_client_info@client@http@net@@YAXPBD@Z
	?setup_iter@directory_iterator@filesystem@@AAEXABVpath@2@@Z
	?shutdown_iter@directory_iterator@filesystem@@AAEXXZ
	?stem@path@filesystem@@QBE?AV12@XZ
	?string@QueryBuilder@Uri@@QBE?AV?$basic_string@DU?$char_traits@D@std@@V?$allocator@D@2@@std@@XZ
	?string@Uri@@QBE?AV?$basic_string@DU?$char_traits@D@std@@V?$allocator@D@2@@std@@XZ
	?string@path@filesystem@@QBEABV?$basic_string@DU?$char_traits@D@std@@V?$allocator@D@2@@std@@XZ
	?swap@path@filesystem@@QAEXAAV12@@Z
	?type@status@filesystem@@QBE?AW4file_type@2@XZ
	?widen@utf@@YA?AV?$basic_string@_WU?$char_traits@_W@std@@V?$allocator@_W@2@@std@@ABV?$basic_string@DU?$char_traits@D@std@@V?$allocator@D@2@@3@@Z
	?wnative@path@filesystem@@QBE?AV?$basic_string@_WU?$char_traits@_W@std@@V?$allocator@_W@2@@std@@XZ
	?wstring@path@filesystem@@QBE?AV?$basic_string@_WU?$char_traits@_W@std@@V?$allocator@_W@2@@std@@XZ

;libjson
	??$is@$01@value@json@@QBE_NXZ
	??0?$backend@$05@value@json@@QAE@ABU012@@Z
	??0?$backend@$05@value@json@@QAE@XZ
	??0?$backend@$06@value@json@@QAE@ABU012@@Z
	??0?$backend@$06@value@json@@QAE@XZ
	??0backend@map@json@@QAE@$$QAU012@@Z
	??0backend@map@json@@QAE@ABU012@@Z
	??0backend@map@json@@QAE@XZ
	??0backend@vector@json@@QAE@$$QAU012@@Z
	??0backend@vector@json@@QAE@ABU012@@Z
	??0backend@vector@json@@QAE@XZ
	??0backend_base@value@json@@QAE@$$QAU012@@Z
	??0backend_base@value@json@@QAE@ABU012@@Z
	??0backend_base@value@json@@QAE@XZ
	??0map@json@@QAE@$$QAU01@@Z
	??0map@json@@QAE@ABU01@@Z
	??0map@json@@QAE@ABUvalue@1@@Z
	??0map@json@@QAE@XZ
	??0value@json@@QAE@$$QAU01@@Z
	??0value@json@@QAE@$$T@Z
	??0value@json@@QAE@ABV?$basic_string@DU?$char_traits@D@std@@V?$allocator@D@2@@std@@@Z
	??0value@json@@QAE@C@Z
	??0value@json@@QAE@F@Z
	??0value@json@@QAE@H@Z
	??0value@json@@QAE@M@Z
	??0value@json@@QAE@N@Z
	??0value@json@@QAE@PBD@Z
	??0value@json@@QAE@XZ
	??0value@json@@QAE@_J@Z
	??0value@json@@QAE@_N@Z
	??0vector@json@@QAE@$$QAU01@@Z
	??0vector@json@@QAE@ABU01@@Z
	??0vector@json@@QAE@ABUvalue@1@@Z
	??0vector@json@@QAE@XZ
	??1backend@map@json@@QAE@XZ
	??1backend@vector@json@@QAE@XZ
	??4?$backend@$05@value@json@@QAEAAU012@$$QAU012@@Z
	??4?$backend@$05@value@json@@QAEAAU012@ABU012@@Z
	??4?$backend@$06@value@json@@QAEAAU012@$$QAU012@@Z
	??4?$backend@$06@value@json@@QAEAAU012@ABU012@@Z
	??4backend@map@json@@QAEAAU012@$$QAU012@@Z
	??4backend@map@json@@QAEAAU012@ABU012@@Z
	??4backend@vector@json@@QAEAAU012@$$QAU012@@Z
	??4backend@vector@json@@QAEAAU012@ABU012@@Z
	??4backend_base@value@json@@QAEAAU012@$$QAU012@@Z
	??4backend_base@value@json@@QAEAAU012@ABU012@@Z
	??4map@json@@QAEAAU01@$$QAU01@@Z
	??4map@json@@QAEAAU01@ABU01@@Z
	??4value@json@@QAEAAU01@$$QAU01@@Z
	??4value@json@@QAEAAU01@ABU01@@Z
	??4vector@json@@QAEAAU01@$$QAU01@@Z
	??4vector@json@@QAEAAU01@ABU01@@Z
	??Amap@json@@QAEAAUvalue@1@ABV?$basic_string@DU?$char_traits@D@std@@V?$allocator@D@2@@std@@@Z
	??Avector@json@@QAEAAUvalue@1@I@Z
	??Avector@json@@QBEABUvalue@1@I@Z
	??Bvalue@json@@QBE_NXZ
	??_7?$backend@$05@value@json@@6B@
	??_7?$backend@$06@value@json@@6B@
	??_7backend@map@json@@6B@
	??_7backend@vector@json@@6B@
	??_7backend_base@value@json@@6B@
	?add@map@json@@QAEAAU12@ABV?$basic_string@DU?$char_traits@D@std@@V?$allocator@D@2@@std@@ABUvalue@2@@Z
	?add@vector@json@@QAEAAU12@ABUvalue@2@@Z
	?as_bool@backend_base@value@json@@UBE_NXZ
	?as_bool@value@json@@QBE_NXZ
	?as_double@backend_base@value@json@@UBENXZ
	?as_double@value@json@@QBENXZ
	?as_int@backend_base@value@json@@UBE_JXZ
	?as_int@value@json@@QBE_JXZ
	?as_string@backend_base@value@json@@UBE?AV?$basic_string@DU?$char_traits@D@std@@V?$allocator@D@2@@std@@XZ
	?as_string@value@json@@QBE?AV?$basic_string@DU?$char_traits@D@std@@V?$allocator@D@2@@std@@XZ
	?at@map@json@@QAEAAUvalue@2@ABV?$basic_string@DU?$char_traits@D@std@@V?$allocator@D@2@@std@@@Z
	?at@map@json@@QBEABUvalue@2@ABV?$basic_string@DU?$char_traits@D@std@@V?$allocator@D@2@@std@@@Z
	?at@vector@json@@QAEAAUvalue@2@I@Z
	?at@vector@json@@QBEABUvalue@2@I@Z
	?begin@map@json@@QAE?AV?$_Tree_iterator@V?$_Tree_val@U?$_Tree_simple_types@U?$pair@$$CBV?$basic_string@DU?$char_traits@D@std@@V?$allocator@D@2@@std@@Uvalue@json@@@std@@@std@@@std@@@std@@XZ
	?begin@map@json@@QBE?AV?$_Tree_const_iterator@V?$_Tree_val@U?$_Tree_simple_types@U?$pair@$$CBV?$basic_string@DU?$char_traits@D@std@@V?$allocator@D@2@@std@@Uvalue@json@@@std@@@std@@@std@@@std@@XZ
	?begin@vector@json@@QAE?AV?$_Vector_iterator@V?$_Vector_val@U?$_Simple_types@Uvalue@json@@@std@@@std@@@std@@XZ
	?begin@vector@json@@QBE?AV?$_Vector_const_iterator@V?$_Vector_val@U?$_Simple_types@Uvalue@json@@@std@@@std@@@std@@XZ
	?end@map@json@@QAE?AV?$_Tree_iterator@V?$_Tree_val@U?$_Tree_simple_types@U?$pair@$$CBV?$basic_string@DU?$char_traits@D@std@@V?$allocator@D@2@@std@@Uvalue@json@@@std@@@std@@@std@@@std@@XZ
	?end@map@json@@QBE?AV?$_Tree_const_iterator@V?$_Tree_val@U?$_Tree_simple_types@U?$pair@$$CBV?$basic_string@DU?$char_traits@D@std@@V?$allocator@D@2@@std@@Uvalue@json@@@std@@@std@@@std@@@std@@XZ
	?end@vector@json@@QAE?AV?$_Vector_iterator@V?$_Vector_val@U?$_Simple_types@Uvalue@json@@@std@@@std@@@std@@XZ
	?end@vector@json@@QBE?AV?$_Vector_const_iterator@V?$_Vector_val@U?$_Simple_types@Uvalue@json@@@std@@@std@@@std@@XZ
	?find@map@json@@QAE?AV?$_Tree_iterator@V?$_Tree_val@U?$_Tree_simple_types@U?$pair@$$CBV?$basic_string@DU?$char_traits@D@std@@V?$allocator@D@2@@std@@Uvalue@json@@@std@@@std@@@std@@@std@@ABV?$basic_string@DU?$char_traits@D@std@@V?$allocator@D@2@@4@@Z
	?find@map@json@@QBE?AV?$_Tree_const_iterator@V?$_Tree_val@U?$_Tree_simple_types@U?$pair@$$CBV?$basic_string@DU?$char_traits@D@std@@V?$allocator@D@2@@std@@Uvalue@json@@@std@@@std@@@std@@@std@@ABV?$basic_string@DU?$char_traits@D@std@@V?$allocator@D@2@@4@@Z
	?from_string@json@@YA?AUvalue@1@ABV?$basic_string@DU?$char_traits@D@std@@V?$allocator@D@2@@std@@@Z
	?from_string@json@@YA?AUvalue@1@PBDI@Z
	?get_type@?$backend@$05@value@json@@UBE?AW4type@3@XZ
	?get_type@?$backend@$06@value@json@@UBE?AW4type@3@XZ
	?get_type@value@json@@QBE?AW4type@2@XZ
	?json_string@json@@YAXAAV?$basic_ostream@DU?$char_traits@D@std@@@std@@ABV?$basic_string@DU?$char_traits@D@std@@V?$allocator@D@2@@3@@Z
	?size@map@json@@QBEIXZ
	?size@vector@json@@QBEIXZ
	?to_html@backend@map@json@@UBEXAAV?$basic_ostream@DU?$char_traits@D@std@@@std@@ABUoptions@value@3@H@Z
	?to_html@backend@vector@json@@UBEXAAV?$basic_ostream@DU?$char_traits@D@std@@@std@@ABUoptions@value@3@H@Z
	?to_html@value@json@@QBE?AV?$basic_string@DU?$char_traits@D@std@@V?$allocator@D@2@@std@@ABUoptions@12@@Z
	?to_html@value@json@@QBEXAAV?$basic_ostream@DU?$char_traits@D@std@@@std@@ABUoptions@12@H@Z
	?to_string@backend@map@json@@UBEXAAV?$basic_ostream@DU?$char_traits@D@std@@@std@@ABUoptions@value@3@H@Z
	?to_string@backend@vector@json@@UBEXAAV?$basic_ostream@DU?$char_traits@D@std@@@std@@ABUoptions@value@3@H@Z
	?to_string@value@json@@QBE?AV?$basic_string@DU?$char_traits@D@std@@V?$allocator@D@2@@std@@ABUoptions@12@@Z
	?to_string@value@json@@QBEXAAV?$basic_ostream@DU?$char_traits@D@std@@@std@@ABUoptions@12@H@Z
	?values@map@json@@AAEAAV?$map@V?$basic_string@DU?$char_traits@D@std@@V?$allocator@D@2@@std@@Uvalue@json@@U?$less@V?$basic_string@DU?$char_traits@D@std@@V?$allocator@D@2@@std@@@2@V?$allocator@U?$pair@$$CBV?$basic_string@DU?$char_traits@D@std@@V?$allocator@D@2@@std@@Uvalue@json@@@std@@@2@@std@@XZ
	?values@map@json@@ABEABV?$map@V?$basic_string@DU?$char_traits@D@std@@V?$allocator@D@2@@std@@Uvalue@json@@U?$less@V?$basic_string@DU?$char_traits@D@std@@V?$allocator@D@2@@std@@@2@V?$allocator@U?$pair@$$CBV?$basic_string@DU?$char_traits@D@std@@V?$allocator@D@2@@std@@Uvalue@json@@@std@@@2@@std@@XZ
	?values@vector@json@@AAEAAV?$vector@Uvalue@json@@V?$allocator@Uvalue@json@@@std@@@std@@XZ
	?values@vector@json@@ABEABV?$vector@Uvalue@json@@V?$allocator@Uvalue@json@@@std@@@std@@XZ
